ccopy_reg
_reconstructor
p0
(csklearn.ensemble.gradient_boosting
GradientBoostingClassifier
p1
c__builtin__
object
p2
Ntp3
Rp4
(dp5
S'presort'
p6
S'auto'
p7
sS'warm_start'
p8
I00
sS'min_impurity_decrease'
p9
F0.0
sS'verbose'
p10
I0
sS'loss'
p11
S'deviance'
p12
sS'min_impurity_split'
p13
NsS'learning_rate'
p14
F0.8
sS'min_samples_split'
p15
I2
sS'min_samples_leaf'
p16
I1
sS'n_estimators'
p17
I300
sS'subsample'
p18
F1.0
sS'init'
p19
NsS'random_state'
p20
NsS'criterion'
p21
S'friedman_mse'
p22
sS'min_weight_fraction_leaf'
p23
F0.0
sS'max_leaf_nodes'
p24
NsS'max_features'
p25
NsS'alpha'
p26
F0.9
sS'max_depth'
p27
I3
sS'_sklearn_version'
p28
S'0.19.0'
p29
sb.