(dp0
I0
(dp1
S'salary'
p2
F201955.0
sS'to_messages'
p3
F2902.0
sS'long_term_incentive'
p4
F304805.0
sS'bonus'
p5
F4175000.0
sS'total_stock_value'
p6
F1729541.0
sS'expenses'
p7
F13868.0
sS'exercised_stock_options'
p8
F1729541.0
sS'from_messages'
p9
F2195.0
sS'from_this_person_to_poi'
p10
F65.0
sS'poi'
p11
F0.0
sS'fraction_of_messages_to_poi'
p12
F0.029612756264200003
sS'deferred_income'
p13
F-3081055.0
sS'shared_receipt_with_poi'
p14
F1407.0
sS'restricted_stock'
p15
F126027.0
sS'from_poi_to_this_person'
p16
F47.0
ssI1
(dp17
g2
F0.0
sg3
F0.0
sg4
F0.0
sg5
F0.0
sg6
F257817.0
sg7
F3486.0
sg8
F257817.0
sg9
F0.0
sg10
F0.0
sg11
F0.0
sg12
F0.0
sg13
F0.0
sg14
F0.0
sg15
F0.0
sg16
F0.0
ssI2
(dp18
g2
F477.0
sg3
F566.0
sg4
F0.0
sg5
F0.0
sg6
F5243487.0
sg7
F56301.0
sg8
F4046157.0
sg9
F29.0
sg10
F0.0
sg11
F0.0
sg12
F0.0
sg13
F-5104.0
sg14
F465.0
sg15
F1757552.0
sg16
F39.0
ssI3
(dp19
g2
F267102.0
sg3
F0.0
sg4
F1586055.0
sg5
F1200000.0
sg6
F10623258.0
sg7
F11200.0
sg8
F6680544.0
sg9
F0.0
sg10
F0.0
sg11
F0.0
sg12
F0.0
sg13
F-1386055.0
sg14
F0.0
sg15
F3942714.0
sg16
F0.0
ssI4
(dp20
g2
F239671.0
sg3
F0.0
sg4
F0.0
sg5
F400000.0
sg6
F63014.0
sg7
F129142.0
sg8
F0.0
sg9
F0.0
sg10
F0.0
sg11
F0.0
sg12
F0.0
sg13
F-201641.0
sg14
F0.0
sg15
F145796.0
sg16
F0.0
ssI5
(dp21
g2
F80818.0
sg3
F0.0
sg4
F93750.0
sg5
F0.0
sg6
F1599641.0
sg7
F0.0
sg8
F1599641.0
sg9
F0.0
sg10
F0.0
sg11
F0.0
sg12
F0.0
sg13
F0.0
sg14
F0.0
sg15
F0.0
sg16
F0.0
ssI6
(dp22
g2
F231330.0
sg3
F7315.0
sg4
F0.0
sg5
F700000.0
sg6
F126027.0
sg7
F37172.0
sg8
F0.0
sg9
F4343.0
sg10
F386.0
sg11
F0.0
sg12
F0.08887865530740001
sg13
F0.0
sg14
F2639.0
sg15
F126027.0
sg16
F144.0
ssI7
(dp23
g2
F213999.0
sg3
F7991.0
sg4
F0.0
sg5
F5249999.0
sg6
F1110705.0
sg7
F17355.0
sg8
F953136.0
sg9
F484.0
sg10
F108.0
sg11
F1.0
sg12
F0.22314049586800003
sg13
F-2334434.0
sg14
F5521.0
sg15
F157569.0
sg16
F228.0
ssI8
(dp24
g2
F0.0
sg3
F0.0
sg4
F0.0
sg5
F0.0
sg6
F-44093.0
sg7
F0.0
sg8
F3285.0
sg9
F0.0
sg10
F0.0
sg11
F0.0
sg12
F0.0
sg13
F0.0
sg14
F0.0
sg15
F0.0
sg16
F0.0
ssI9
(dp25
g2
F216582.0
sg3
F0.0
sg4
F0.0
sg5
F0.0
sg6
F2493616.0
sg7
F11892.0
sg8
F1624396.0
sg9
F0.0
sg10
F0.0
sg11
F0.0
sg12
F0.0
sg13
F0.0
sg14
F0.0
sg15
F869220.0
sg16
F0.0
ssI10
(dp26
g2
F187922.0
sg3
F383.0
sg4
F180250.0
sg5
F250000.0
sg6
F659249.0
sg7
F59175.0
sg8
F0.0
sg9
F59.0
sg10
F0.0
sg11
F0.0
sg12
F0.0
sg13
F-485813.0
sg14
F233.0
sg15
F659249.0
sg16
F4.0
ssI11
(dp27
g2
F0.0
sg3
F523.0
sg4
F0.0
sg5
F0.0
sg6
F0.0
sg7
F0.0
sg8
F2604490.0
sg9
F29.0
sg10
F1.0
sg11
F0.0
sg12
F0.0344827586207
sg13
F0.0
sg14
F463.0
sg15
F-2604490.0
sg16
F0.0
ssI12
(dp28
g2
F213625.0
sg3
F1607.0
sg4
F369721.0
sg5
F1000000.0
sg6
F1843816.0
sg7
F38559.0
sg8
F1465734.0
sg9
F40.0
sg10
F8.0
sg11
F0.0
sg12
F0.2
sg13
F0.0
sg14
F1336.0
sg15
F378082.0
sg16
F23.0
ssI13
(dp29
g2
F248546.0
sg3
F2475.0
sg4
F831809.0
sg5
F850000.0
sg6
F954354.0
sg7
F84208.0
sg8
F765313.0
sg9
F14.0
sg10
F2.0
sg11
F0.0
sg12
F0.14285714285700002
sg13
F0.0
sg14
F2326.0
sg15
F189041.0
sg16
F25.0
ssI14
(dp30
g2
F0.0
sg3
F0.0
sg4
F0.0
sg5
F0.0
sg6
F0.0
sg7
F1279.0
sg8
F0.0
sg9
F0.0
sg10
F0.0
sg11
F0.0
sg12
F0.0
sg13
F-113784.0
sg14
F0.0
sg15
F0.0
sg16
F0.0
ssI15
(dp31
g2
F278601.0
sg3
F1858.0
sg4
F974293.0
sg5
F1350000.0
sg6
F252055.0
sg7
F65907.0
sg8
F0.0
sg9
F27.0
sg10
F15.0
sg11
F1.0
sg12
F0.555555555556
sg13
F-833.0
sg14
F1593.0
sg15
F252055.0
sg16
F140.0
ssI16
(dp32
g2
F0.0
sg3
F1486.0
sg4
F0.0
sg5
F0.0
sg6
F0.0
sg7
F49288.0
sg8
F0.0
sg9
F41.0
sg10
F1.0
sg11
F0.0
sg12
F0.0243902439024
sg13
F0.0
sg14
F761.0
sg15
F0.0
sg16
F13.0
ssI17
(dp33
g2
F248017.0
sg3
F1088.0
sg4
F304805.0
sg5
F500000.0
sg6
F1014505.0
sg7
F600.0
sg8
F825464.0
sg9
F125.0
sg10
F0.0
sg11
F0.0
sg12
F0.0
sg13
F0.0
sg14
F23.0
sg15
F189041.0
sg16
F0.0
ssI18
(dp34
g2
F261516.0
sg3
F0.0
sg4
F175000.0
sg5
F750000.0
sg6
F417619.0
sg7
F9410.0
sg8
F0.0
sg9
F0.0
sg10
F0.0
sg11
F0.0
sg12
F0.0
sg13
F-75000.0
sg14
F0.0
sg15
F417619.0
sg16
F0.0
ssI19
(dp35
g2
F330546.0
sg3
F3523.0
sg4
F769862.0
sg5
F900000.0
sg6
F3444470.0
sg7
F0.0
sg8
F2542813.0
sg9
F1053.0
sg10
F71.0
sg11
F0.0
sg12
F0.0674264007597
sg13
F-694862.0
sg14
F2333.0
sg15
F901657.0
sg16
F156.0
ssI20
(dp36
g2
F240189.0
sg3
F2598.0
sg4
F375304.0
sg5
F1250000.0
sg6
F126027.0
sg7
F35818.0
sg8
F0.0
sg9
F144.0
sg10
F25.0
sg11
F1.0
sg12
F0.173611111111
sg13
F-262500.0
sg14
F2188.0
sg15
F126027.0
sg16
F199.0
ssI21
(dp37
g2
F261809.0
sg3
F312.0
sg4
F75000.0
sg5
F300000.0
sg6
F0.0
sg7
F0.0
sg8
F0.0
sg9
F15.0
sg10
F7.0
sg11
F0.0
sg12
F0.46666666666699996
sg13
F-159792.0
sg14
F196.0
sg15
F307301.0
sg16
F29.0
ssI22
(dp38
g2
F415189.0
sg3
F1892.0
sg4
F350000.0
sg5
F1000000.0
sg6
F2502063.0
sg7
F30674.0
sg8
F0.0
sg9
F49.0
sg10
F12.0
sg11
F1.0
sg12
F0.244897959184
sg13
F-235000.0
sg14
F1585.0
sg15
F2502063.0
sg16
F58.0
ssI23
(dp39
g2
F0.0
sg3
F0.0
sg4
F0.0
sg5
F0.0
sg6
F0.0
sg7
F0.0
sg8
F0.0
sg9
F0.0
sg10
F0.0
sg11
F0.0
sg12
F0.0
sg13
F-98784.0
sg14
F0.0
sg15
F32460.0
sg16
F0.0
ssI24
(dp40
g2
F0.0
sg3
F0.0
sg4
F0.0
sg5
F0.0
sg6
F6077885.0
sg7
F0.0
sg8
F5127155.0
sg9
F0.0
sg10
F0.0
sg11
F0.0
sg12
F0.0
sg13
F0.0
sg14
F0.0
sg15
F950730.0
sg16
F0.0
ssI25
(dp41
g2
F0.0
sg3
F0.0
sg4
F0.0
sg5
F0.0
sg6
F189518.0
sg7
F0.0
sg8
F0.0
sg9
F0.0
sg10
F0.0
sg11
F0.0
sg12
F0.0
sg13
F0.0
sg14
F0.0
sg15
F662086.0
sg16
F0.0
ssI26
(dp42
g2
F288542.0
sg3
F1758.0
sg4
F0.0
sg5
F1200000.0
sg6
F698242.0
sg7
F16514.0
sg8
F0.0
sg9
F40.0
sg10
F11.0
sg11
F1.0
sg12
F0.275
sg13
F-144062.0
sg14
F1132.0
sg15
F698242.0
sg16
F240.0
ssI27
(dp43
g2
F0.0
sg3
F764.0
sg4
F0.0
sg5
F0.0
sg6
F1038185.0
sg7
F0.0
sg8
F651850.0
sg9
F12.0
sg10
F0.0
sg11
F0.0
sg12
F0.0
sg13
F0.0
sg14
F58.0
sg15
F386335.0
sg16
F10.0
ssI28
(dp44
g2
F314288.0
sg3
F102.0
sg4
F0.0
sg5
F800000.0
sg6
F495633.0
sg7
F27861.0
sg8
F117551.0
sg9
F33.0
sg10
F4.0
sg11
F0.0
sg12
F0.121212121212
sg13
F-41250.0
sg14
F71.0
sg15
F378082.0
sg16
F0.0
ssI29
(dp45
g2
F184899.0
sg3
F0.0
sg4
F275000.0
sg5
F325000.0
sg6
F207940.0
sg7
F22344.0
sg8
F0.0
sg9
F0.0
sg10
F0.0
sg11
F0.0
sg12
F0.0
sg13
F0.0
sg14
F0.0
sg15
F207940.0
sg16
F0.0
ssI30
(dp46
g2
F206121.0
sg3
F714.0
sg4
F335349.0
sg5
F600000.0
sg6
F159211.0
sg7
F41626.0
sg8
F17378.0
sg9
F74.0
sg10
F4.0
sg11
F0.0
sg12
F0.0540540540541
sg13
F0.0
sg14
F552.0
sg15
F141833.0
sg16
F115.0
ssI31
(dp47
g2
F365163.0
sg3
F3093.0
sg4
F1294981.0
sg5
F3000000.0
sg6
F3614261.0
sg7
F86174.0
sg8
F2291113.0
sg9
F3069.0
sg10
F609.0
sg11
F1.0
sg12
F0.19843597263
sg13
F0.0
sg14
F2097.0
sg15
F1323148.0
sg16
F66.0
ssI32
(dp48
g2
F492375.0
sg3
F2181.0
sg4
F484000.0
sg5
F800000.0
sg6
F8831913.0
sg7
F51124.0
sg8
F8831913.0
sg9
F909.0
sg10
F20.0
sg11
F0.0
sg12
F0.02200220022
sg13
F-1284000.0
sg14
F1401.0
sg15
F1787380.0
sg16
F64.0
ssI33
(dp49
g2
F210500.0
sg3
F0.0
sg4
F415657.0
sg5
F425000.0
sg6
F2027865.0
sg7
F52255.0
sg8
F2027865.0
sg9
F0.0
sg10
F0.0
sg11
F0.0
sg12
F0.0
sg13
F-775241.0
sg14
F0.0
sg15
F315068.0
sg16
F0.0
ssI34
(dp50
g2
F250100.0
sg3
F2572.0
sg4
F556416.0
sg5
F600000.0
sg6
F1865087.0
sg7
F3475.0
sg8
F1550019.0
sg9
F63.0
sg10
F14.0
sg11
F0.0
sg12
F0.222222222222
sg13
F0.0
sg14
F1902.0
sg15
F315068.0
sg16
F305.0
ssI35
(dp51
g2
F262788.0
sg3
F0.0
sg4
F694862.0
sg5
F1000000.0
sg6
F8317782.0
sg7
F35812.0
sg8
F8191755.0
sg9
F0.0
sg10
F0.0
sg11
F0.0
sg12
F0.0
sg13
F0.0
sg14
F0.0
sg15
F126027.0
sg16
F0.0
ssI36
(dp52
g2
F221003.0
sg3
F176.0
sg4
F0.0
sg5
F70000.0
sg6
F0.0
sg7
F28164.0
sg8
F0.0
sg9
F14.0
sg10
F3.0
sg11
F0.0
sg12
F0.214285714286
sg13
F0.0
sg14
F114.0
sg15
F0.0
sg16
F10.0
ssI37
(dp53
g2
F278601.0
sg3
F865.0
sg4
F0.0
sg5
F800000.0
sg6
F1080988.0
sg7
F96268.0
sg8
F765920.0
sg9
F22.0
sg10
F11.0
sg11
F0.0
sg12
F0.5
sg13
F-300000.0
sg14
F772.0
sg15
F315068.0
sg16
F188.0
ssI38
(dp54
g2
F0.0
sg3
F0.0
sg4
F0.0
sg5
F0.0
sg6
F371750.0
sg7
F0.0
sg8
F371750.0
sg9
F0.0
sg10
F0.0
sg11
F0.0
sg12
F0.0
sg13
F-25000.0
sg14
F0.0
sg15
F0.0
sg16
F0.0
ssI39
(dp55
g2
F210692.0
sg3
F904.0
sg4
F1105218.0
sg5
F750000.0
sg6
F1640910.0
sg7
F25785.0
sg8
F1451869.0
sg9
F12.0
sg10
F3.0
sg11
F0.0
sg12
F0.25
sg13
F0.0
sg14
F599.0
sg15
F189041.0
sg16
F106.0
ssI40
(dp56
g2
F182245.0
sg3
F0.0
sg4
F2234774.0
sg5
F200000.0
sg6
F1008941.0
sg7
F21530.0
sg8
F601438.0
sg9
F0.0
sg10
F0.0
sg11
F0.0
sg12
F0.0
sg13
F0.0
sg14
F0.0
sg15
F407503.0
sg16
F0.0
ssI41
(dp57
g2
F170941.0
sg3
F0.0
sg4
F0.0
sg5
F350000.0
sg6
F6678735.0
sg7
F78552.0
sg8
F4890344.0
sg9
F0.0
sg10
F0.0
sg11
F0.0
sg12
F0.0
sg13
F-400729.0
sg14
F0.0
sg15
F1788391.0
sg16
F0.0
ssI42
(dp58
g2
F304588.0
sg3
F1755.0
sg4
F374347.0
sg5
F2500000.0
sg6
F2332399.0
sg7
F95924.0
sg8
F940257.0
sg9
F75.0
sg10
F37.0
sg11
F0.0
sg12
F0.493333333333
sg13
F0.0
sg14
F1604.0
sg15
F1392142.0
sg16
F42.0
ssI43
(dp59
g2
F440698.0
sg3
F0.0
sg4
F1736055.0
sg5
F1300000.0
sg6
F1794412.0
sg7
F55921.0
sg8
F0.0
sg9
F0.0
sg10
F0.0
sg11
F1.0
sg12
F0.0
sg13
F-1386055.0
sg14
F0.0
sg15
F1794412.0
sg16
F0.0
ssI44
(dp60
g2
F199157.0
sg3
F936.0
sg4
F556416.0
sg5
F350000.0
sg6
F1621236.0
sg7
F23870.0
sg8
F664461.0
sg9
F16.0
sg10
F8.0
sg11
F0.0
sg12
F0.5
sg13
F0.0
sg14
F723.0
sg15
F956775.0
sg16
F1.0
ssI45
(dp61
g2
F0.0
sg3
F517.0
sg4
F0.0
sg5
F0.0
sg6
F1884748.0
sg7
F0.0
sg8
F1324578.0
sg9
F36.0
sg10
F0.0
sg11
F0.0
sg12
F0.0
sg13
F0.0
sg14
F10.0
sg15
F560170.0
sg16
F0.0
ssI46
(dp62
g2
F0.0
sg3
F57.0
sg4
F0.0
sg5
F0.0
sg6
F343434.0
sg7
F0.0
sg8
F343434.0
sg9
F13.0
sg10
F0.0
sg11
F0.0
sg12
F0.0
sg13
F0.0
sg14
F2.0
sg15
F0.0
sg16
F0.0
ssI47
(dp63
g2
F1060932.0
sg3
F3275.0
sg4
F1617011.0
sg5
F2000000.0
sg6
F14622185.0
sg7
F86987.0
sg8
F10433518.0
sg9
F21.0
sg10
F6.0
sg11
F0.0
sg12
F0.28571428571400004
sg13
F-3367011.0
sg14
F2979.0
sg15
F4188667.0
sg16
F242.0
ssI48
(dp64
g2
F0.0
sg3
F0.0
sg4
F0.0
sg5
F0.0
sg6
F176378.0
sg7
F0.0
sg8
F176378.0
sg9
F0.0
sg10
F0.0
sg11
F0.0
sg12
F0.0
sg13
F0.0
sg14
F0.0
sg15
F0.0
sg16
F0.0
ssI49
(dp65
g2
F192008.0
sg3
F0.0
sg4
F0.0
sg5
F509870.0
sg6
F318607.0
sg7
F50080.0
sg8
F83237.0
sg9
F0.0
sg10
F0.0
sg11
F0.0
sg12
F0.0
sg13
F-1042.0
sg14
F0.0
sg15
F235370.0
sg16
F0.0
ssI50
(dp66
g2
F231946.0
sg3
F209.0
sg4
F375304.0
sg5
F850000.0
sg6
F896153.0
sg7
F48405.0
sg8
F636246.0
sg9
F44.0
sg10
F27.0
sg11
F0.0
sg12
F0.613636363636
sg13
F0.0
sg14
F178.0
sg15
F259907.0
sg16
F10.0
ssI51
(dp67
g2
F0.0
sg3
F0.0
sg4
F0.0
sg5
F0.0
sg6
F1945360.0
sg7
F0.0
sg8
F1753766.0
sg9
F0.0
sg10
F0.0
sg11
F0.0
sg12
F0.0
sg13
F0.0
sg14
F0.0
sg15
F264013.0
sg16
F0.0
ssI52
(dp68
g2
F0.0
sg3
F169.0
sg4
F461912.0
sg5
F0.0
sg6
F2218275.0
sg7
F0.0
sg8
F2218275.0
sg9
F12.0
sg10
F0.0
sg11
F0.0
sg12
F0.0
sg13
F0.0
sg14
F23.0
sg15
F0.0
sg16
F0.0
ssI53
(dp69
g2
F0.0
sg3
F0.0
sg4
F0.0
sg5
F0.0
sg6
F85641.0
sg7
F0.0
sg8
F9803.0
sg9
F0.0
sg10
F0.0
sg11
F0.0
sg12
F0.0
sg13
F0.0
sg14
F0.0
sg15
F75838.0
sg16
F0.0
ssI54
(dp70
g2
F274975.0
sg3
F873.0
sg4
F71023.0
sg5
F600000.0
sg6
F778546.0
sg7
F125978.0
sg8
F384728.0
sg9
F16.0
sg10
F6.0
sg11
F1.0
sg12
F0.375
sg13
F0.0
sg14
F874.0
sg15
F393818.0
sg16
F52.0
ssI55
(dp71
g2
F272880.0
sg3
F0.0
sg4
F304805.0
sg5
F750000.0
sg6
F877611.0
sg7
F0.0
sg8
F436515.0
sg9
F0.0
sg10
F0.0
sg11
F0.0
sg12
F0.0
sg13
F0.0
sg14
F0.0
sg15
F441096.0
sg16
F0.0
ssI56
(dp72
g2
F0.0
sg3
F0.0
sg4
F0.0
sg5
F0.0
sg6
F0.0
sg7
F0.0
sg8
F0.0
sg9
F0.0
sg10
F0.0
sg11
F0.0
sg12
F0.0
sg13
F0.0
sg14
F0.0
sg15
F0.0
sg16
F0.0
ssI57
(dp73
g2
F6615.0
sg3
F0.0
sg4
F365625.0
sg5
F0.0
sg6
F0.0
sg7
F0.0
sg8
F0.0
sg9
F0.0
sg10
F0.0
sg11
F0.0
sg12
F0.0
sg13
F0.0
sg14
F0.0
sg15
F0.0
sg16
F0.0
ssI58
(dp74
g2
F374125.0
sg3
F4009.0
sg4
F983346.0
sg5
F1150000.0
sg6
F803094.0
sg7
F76169.0
sg8
F608750.0
sg9
F1941.0
sg10
F61.0
sg11
F0.0
sg12
F0.0314270994333
sg13
F-934484.0
sg14
F1847.0
sg15
F524169.0
sg16
F180.0
ssI59
(dp75
g2
F243293.0
sg3
F1045.0
sg4
F1617011.0
sg5
F1500000.0
sg6
F6391065.0
sg7
F34039.0
sg8
F5538001.0
sg9
F32.0
sg10
F21.0
sg11
F1.0
sg12
F0.65625
sg13
F-3117011.0
sg14
F1035.0
sg15
F853064.0
sg16
F32.0
ssI60
(dp76
g2
F0.0
sg3
F573.0
sg4
F0.0
sg5
F0.0
sg6
F2217299.0
sg7
F475.0
sg8
F0.0
sg9
F19.0
sg10
F7.0
sg11
F0.0
sg12
F0.368421052632
sg13
F0.0
sg14
F471.0
sg15
F2217299.0
sg16
F4.0
ssI61
(dp77
g2
F0.0
sg3
F504.0
sg4
F0.0
sg5
F0.0
sg6
F151418.0
sg7
F0.0
sg8
F0.0
sg9
F12.0
sg10
F0.0
sg11
F0.0
sg12
F0.0
sg13
F0.0
sg14
F50.0
sg15
F151418.0
sg16
F16.0
ssI62
(dp78
g2
F0.0
sg3
F2649.0
sg4
F0.0
sg5
F0.0
sg6
F346663.0
sg7
F0.0
sg8
F0.0
sg9
F1061.0
sg10
F38.0
sg11
F0.0
sg12
F0.035815268614500004
sg13
F0.0
sg14
F571.0
sg15
F346663.0
sg16
F35.0
ssI63
(dp79
g2
F262663.0
sg3
F0.0
sg4
F150000.0
sg5
F700000.0
sg6
F668132.0
sg7
F48357.0
sg8
F187500.0
sg9
F0.0
sg10
F0.0
sg11
F0.0
sg12
F0.0
sg13
F-280000.0
sg14
F0.0
sg15
F480632.0
sg16
F0.0
ssI64
(dp80
g2
F211788.0
sg3
F1320.0
sg4
F69223.0
sg5
F1700000.0
sg6
F441096.0
sg7
F98849.0
sg8
F0.0
sg9
F27.0
sg10
F1.0
sg11
F0.0
sg12
F0.037037037037
sg13
F0.0
sg14
F900.0
sg15
F441096.0
sg16
F40.0
ssI65
(dp81
g2
F0.0
sg3
F0.0
sg4
F0.0
sg5
F0.0
sg6
F30766064.0
sg7
F77978.0
sg8
F30766064.0
sg9
F0.0
sg10
F0.0
sg11
F1.0
sg12
F0.0
sg13
F0.0
sg14
F0.0
sg15
F0.0
sg16
F0.0
ssI66
(dp82
g2
F0.0
sg3
F2350.0
sg4
F0.0
sg5
F0.0
sg6
F7256648.0
sg7
F0.0
sg8
F5210569.0
sg9
F1073.0
sg10
F15.0
sg11
F0.0
sg12
F0.0139794967381
sg13
F0.0
sg14
F1074.0
sg15
F2046079.0
sg16
F44.0
ssI67
(dp83
g2
F0.0
sg3
F719.0
sg4
F0.0
sg5
F0.0
sg6
F1118394.0
sg7
F0.0
sg8
F754966.0
sg9
F34.0
sg10
F5.0
sg11
F0.0
sg12
F0.14705882352900002
sg13
F0.0
sg14
F589.0
sg15
F363428.0
sg16
F35.0
ssI68
(dp84
g2
F130724.0
sg3
F128.0
sg4
F0.0
sg5
F0.0
sg6
F2282768.0
sg7
F4994.0
sg8
F2282768.0
sg9
F17.0
sg10
F17.0
sg11
F0.0
sg12
F1.0
sg13
F0.0
sg14
F119.0
sg15
F0.0
sg16
F10.0
ssI69
(dp85
g2
F85274.0
sg3
F496.0
sg4
F312500.0
sg5
F0.0
sg6
F5819980.0
sg7
F28093.0
sg8
F2165172.0
sg9
F19.0
sg10
F5.0
sg11
F0.0
sg12
F0.263157894737
sg13
F0.0
sg14
F437.0
sg15
F3654808.0
sg16
F28.0
ssI70
(dp86
g2
F288558.0
sg3
F258.0
sg4
F0.0
sg5
F250000.0
sg6
F725735.0
sg7
F10181.0
sg8
F185063.0
sg9
F56.0
sg10
F19.0
sg11
F0.0
sg12
F0.33928571428599996
sg13
F0.0
sg14
F117.0
sg15
F540672.0
sg16
F25.0
ssI71
(dp87
g2
F0.0
sg3
F0.0
sg4
F0.0
sg5
F0.0
sg6
F431750.0
sg7
F0.0
sg8
F431750.0
sg9
F0.0
sg10
F0.0
sg11
F0.0
sg12
F0.0
sg13
F-25000.0
sg14
F0.0
sg15
F44093.0
sg16
F0.0
ssI72
(dp88
g2
F275101.0
sg3
F4607.0
sg4
F323466.0
sg5
F400000.0
sg6
F976037.0
sg7
F83585.0
sg8
F850010.0
sg9
F14368.0
sg10
F171.0
sg11
F0.0
sg12
F0.0119014476615
sg13
F0.0
sg14
F583.0
sg15
F126027.0
sg16
F41.0
ssI73
(dp89
g2
F404338.0
sg3
F12754.0
sg4
F300000.0
sg5
F1000000.0
sg6
F6153642.0
sg7
F41953.0
sg8
F2022048.0
sg9
F6759.0
sg10
F387.0
sg11
F0.0
sg12
F0.0572569906791
sg13
F0.0
sg14
F3639.0
sg15
F4131594.0
sg16
F140.0
ssI74
(dp90
g2
F174246.0
sg3
F0.0
sg4
F0.0
sg5
F0.0
sg6
F1034346.0
sg7
F116335.0
sg8
F0.0
sg9
F0.0
sg10
F0.0
sg11
F0.0
sg12
F0.0
sg13
F-51042.0
sg14
F0.0
sg15
F1034346.0
sg16
F0.0
ssI75
(dp91
g2
F271442.0
sg3
F8305.0
sg4
F0.0
sg5
F3100000.0
sg6
F547143.0
sg7
F5774.0
sg8
F81042.0
sg9
F1728.0
sg10
F194.0
sg11
F0.0
sg12
F0.11226851851900001
sg13
F0.0
sg14
F3669.0
sg15
F466101.0
sg16
F251.0
ssI76
(dp92
g2
F309946.0
sg3
F2374.0
sg4
F300000.0
sg5
F700000.0
sg6
F1920055.0
sg7
F127017.0
sg8
F671737.0
sg9
F61.0
sg10
F15.0
sg11
F1.0
sg12
F0.245901639344
sg13
F0.0
sg14
F2271.0
sg15
F1248318.0
sg16
F53.0
ssI77
(dp93
g2
F224305.0
sg3
F0.0
sg4
F602671.0
sg5
F800000.0
sg6
F985032.0
sg7
F118134.0
sg8
F0.0
sg9
F0.0
sg10
F0.0
sg11
F1.0
sg12
F0.0
sg13
F0.0
sg14
F0.0
sg15
F985032.0
sg16
F0.0
ssI78
(dp94
g2
F339288.0
sg3
F7259.0
sg4
F2035380.0
sg5
F8000000.0
sg6
F5167144.0
sg7
F49537.0
sg8
F4158995.0
sg9
F2585.0
sg10
F411.0
sg11
F0.0
sg12
F0.158994197292
sg13
F0.0
sg14
F3962.0
sg15
F1008149.0
sg16
F528.0
ssI79
(dp95
g2
F1072321.0
sg3
F4273.0
sg4
F3600000.0
sg5
F7000000.0
sg6
F49110078.0
sg7
F99832.0
sg8
F34348384.0
sg9
F36.0
sg10
F16.0
sg11
F1.0
sg12
F0.444444444444
sg13
F-300000.0
sg14
F2411.0
sg15
F14761694.0
sg16
F123.0
ssI80
(dp96
g2
F273746.0
sg3
F2822.0
sg4
F1387399.0
sg5
F1000000.0
sg6
F360528.0
sg7
F0.0
sg8
F0.0
sg9
F63.0
sg10
F14.0
sg11
F0.0
sg12
F0.222222222222
sg13
F0.0
sg14
F2672.0
sg15
F360528.0
sg16
F67.0
ssI81
(dp97
g2
F0.0
sg3
F0.0
sg4
F0.0
sg5
F0.0
sg6
F412878.0
sg7
F0.0
sg8
F412878.0
sg9
F0.0
sg10
F0.0
sg11
F0.0
sg12
F0.0
sg13
F-25000.0
sg14
F0.0
sg15
F0.0
sg16
F0.0
ssI82
(dp98
g2
F0.0
sg3
F952.0
sg4
F0.0
sg5
F0.0
sg6
F850477.0
sg7
F0.0
sg8
F850477.0
sg9
F26.0
sg10
F0.0
sg11
F0.0
sg12
F0.0
sg13
F0.0
sg14
F739.0
sg15
F0.0
sg16
F10.0
ssI83
(dp99
g2
F236457.0
sg3
F0.0
sg4
F175000.0
sg5
F200000.0
sg6
F3064208.0
sg7
F57727.0
sg8
F2549361.0
sg9
F0.0
sg10
F0.0
sg11
F0.0
sg12
F0.0
sg13
F0.0
sg14
F0.0
sg15
F514847.0
sg16
F0.0
ssI85
(dp100
g2
F0.0
sg3
F0.0
sg4
F0.0
sg5
F0.0
sg6
F372205.0
sg7
F0.0
sg8
F372205.0
sg9
F0.0
sg10
F0.0
sg11
F0.0
sg12
F0.0
sg13
F0.0
sg14
F0.0
sg15
F153686.0
sg16
F0.0
ssI86
(dp101
g2
F349487.0
sg3
F1522.0
sg4
F5145434.0
sg5
F0.0
sg6
F2070306.0
sg7
F8211.0
sg8
F2070306.0
sg9
F230.0
sg10
F0.0
sg11
F0.0
sg12
F0.0
sg13
F0.0
sg14
F477.0
sg15
F0.0
sg16
F8.0
ssI87
(dp102
g2
F0.0
sg3
F1433.0
sg4
F0.0
sg5
F0.0
sg6
F758931.0
sg7
F0.0
sg8
F664375.0
sg9
F215.0
sg10
F2.0
sg11
F0.0
sg12
F0.0093023255814
sg13
F0.0
sg14
F508.0
sg15
F94556.0
sg16
F25.0
ssI88
(dp103
g2
F263413.0
sg3
F1744.0
sg4
F0.0
sg5
F900000.0
sg6
F947861.0
sg7
F228763.0
sg8
F506765.0
sg9
F49.0
sg10
F0.0
sg11
F0.0
sg12
F0.0
sg13
F-125000.0
sg14
F1469.0
sg15
F441096.0
sg16
F52.0
ssI89
(dp104
g2
F365038.0
sg3
F3329.0
sg4
F554422.0
sg5
F1100000.0
sg6
F3101279.0
sg7
F81364.0
sg8
F1623010.0
sg9
F2742.0
sg10
F194.0
sg11
F0.0
sg12
F0.0707512764406
sg13
F0.0
sg14
F2189.0
sg15
F1478269.0
sg16
F92.0
ssI90
(dp105
g2
F0.0
sg3
F894.0
sg4
F0.0
sg5
F0.0
sg6
F1691366.0
sg7
F0.0
sg8
F757301.0
sg9
F13.0
sg10
F1.0
sg11
F0.0
sg12
F0.0769230769231
sg13
F0.0
sg14
F720.0
sg15
F934065.0
sg16
F54.0
ssI91
(dp106
g2
F370448.0
sg3
F2355.0
sg4
F694862.0
sg5
F2600000.0
sg6
F1662855.0
sg7
F137108.0
sg8
F1104054.0
sg9
F48.0
sg10
F26.0
sg11
F0.0
sg12
F0.541666666667
sg13
F0.0
sg14
F2228.0
sg15
F558801.0
sg16
F58.0
ssI92
(dp107
g2
F0.0
sg3
F0.0
sg4
F0.0
sg5
F0.0
sg6
F0.0
sg7
F148.0
sg8
F0.0
sg9
F0.0
sg10
F0.0
sg11
F0.0
sg12
F0.0
sg13
F-103750.0
sg14
F0.0
sg15
F0.0
sg16
F0.0
ssI93
(dp108
g2
F365788.0
sg3
F807.0
sg4
F0.0
sg5
F600000.0
sg6
F585062.0
sg7
F94299.0
sg8
F0.0
sg9
F29.0
sg10
F1.0
sg11
F0.0
sg12
F0.0344827586207
sg13
F0.0
sg14
F702.0
sg15
F585062.0
sg16
F38.0
ssI94
(dp109
g2
F0.0
sg3
F0.0
sg4
F0.0
sg5
F0.0
sg6
F0.0
sg7
F2151.0
sg8
F0.0
sg9
F0.0
sg10
F0.0
sg11
F0.0
sg12
F0.0
sg13
F-38346.0
sg14
F0.0
sg15
F0.0
sg16
F0.0
ssI95
(dp110
g2
F0.0
sg3
F232.0
sg4
F0.0
sg5
F0.0
sg6
F955873.0
sg7
F0.0
sg8
F493489.0
sg9
F28.0
sg10
F0.0
sg11
F0.0
sg12
F0.0
sg13
F0.0
sg14
F22.0
sg15
F462384.0
sg16
F0.0
ssI96
(dp111
g2
F0.0
sg3
F672.0
sg4
F0.0
sg5
F0.0
sg6
F221141.0
sg7
F0.0
sg8
F59539.0
sg9
F19.0
sg10
F0.0
sg11
F0.0
sg12
F0.0
sg13
F0.0
sg14
F127.0
sg15
F161602.0
sg16
F0.0
ssI97
(dp112
g2
F267093.0
sg3
F0.0
sg4
F0.0
sg5
F325000.0
sg6
F208510.0
sg7
F35018.0
sg8
F0.0
sg9
F0.0
sg10
F0.0
sg11
F0.0
sg12
F0.0
sg13
F0.0
sg14
F0.0
sg15
F208510.0
sg16
F0.0
ssI98
(dp113
g2
F251654.0
sg3
F136.0
sg4
F1725545.0
sg5
F1100000.0
sg6
F1416848.0
sg7
F0.0
sg8
F1056320.0
sg9
F16.0
sg10
F0.0
sg11
F0.0
sg12
F0.0
sg13
F-719000.0
sg14
F114.0
sg15
F360528.0
sg16
F12.0
ssI99
(dp114
g2
F229284.0
sg3
F2192.0
sg4
F125000.0
sg5
F400000.0
sg6
F597461.0
sg7
F57580.0
sg8
F400478.0
sg9
F45.0
sg10
F2.0
sg11
F0.0
sg12
F0.044444444444399996
sg13
F0.0
sg14
F395.0
sg15
F196983.0
sg16
F11.0
ssI100
(dp115
g2
F0.0
sg3
F0.0
sg4
F0.0
sg5
F0.0
sg6
F368705.0
sg7
F0.0
sg8
F0.0
sg9
F0.0
sg10
F0.0
sg11
F0.0
sg12
F0.0
sg13
F0.0
sg14
F0.0
sg15
F463261.0
sg16
F0.0
ssI101
(dp116
g2
F329078.0
sg3
F1184.0
sg4
F100000.0
sg5
F750000.0
sg6
F2606763.0
sg7
F63791.0
sg8
F1637034.0
sg9
F52.0
sg10
F15.0
sg11
F0.0
sg12
F0.288461538462
sg13
F0.0
sg14
F856.0
sg15
F969729.0
sg16
F20.0
ssI102
(dp117
g2
F94941.0
sg3
F0.0
sg4
F135836.0
sg5
F0.0
sg6
F7307594.0
sg7
F18834.0
sg8
F5266578.0
sg9
F0.0
sg10
F0.0
sg11
F0.0
sg12
F0.0
sg13
F0.0
sg14
F0.0
sg15
F2041016.0
sg16
F0.0
ssI103
(dp118
g2
F261879.0
sg3
F0.0
sg4
F0.0
sg5
F1000000.0
sg6
F23817930.0
sg7
F32047.0
sg8
F15364167.0
sg9
F0.0
sg10
F0.0
sg11
F0.0
sg12
F0.0
sg13
F0.0
sg14
F0.0
sg15
F8453763.0
sg16
F0.0
ssI104
(dp119
g2
F0.0
sg3
F0.0
sg4
F0.0
sg5
F0.0
sg6
F0.0
sg7
F27942.0
sg8
F0.0
sg9
F0.0
sg10
F0.0
sg11
F0.0
sg12
F0.0
sg13
F-101250.0
sg14
F0.0
sg15
F0.0
sg16
F0.0
ssI105
(dp120
g2
F655037.0
sg3
F898.0
sg4
F0.0
sg5
F300000.0
sg6
F28798.0
sg7
F31653.0
sg8
F28798.0
sg9
F67.0
sg10
F0.0
sg11
F0.0
sg12
F0.0
sg13
F0.0
sg14
F728.0
sg15
F0.0
sg16
F7.0
ssI106
(dp121
g2
F197091.0
sg3
F1238.0
sg4
F0.0
sg5
F400000.0
sg6
F880290.0
sg7
F43057.0
sg8
F880290.0
sg9
F222.0
sg10
F48.0
sg11
F0.0
sg12
F0.21621621621599998
sg13
F-33333.0
sg14
F742.0
sg15
F409554.0
sg16
F61.0
ssI107
(dp122
g2
F0.0
sg3
F58.0
sg4
F0.0
sg5
F0.0
sg6
F47304.0
sg7
F0.0
sg8
F0.0
sg9
F16.0
sg10
F1.0
sg11
F0.0
sg12
F0.0625
sg13
F0.0
sg14
F3.0
sg15
F47304.0
sg16
F0.0
ssI108
(dp123
g2
F0.0
sg3
F653.0
sg4
F0.0
sg5
F0.0
sg6
F0.0
sg7
F0.0
sg8
F0.0
sg9
F26.0
sg10
F0.0
sg11
F0.0
sg12
F0.0
sg13
F-17500.0
sg14
F12.0
sg15
F0.0
sg16
F0.0
ssI109
(dp124
g2
F0.0
sg3
F0.0
sg4
F0.0
sg5
F0.0
sg6
F1095040.0
sg7
F0.0
sg8
F886231.0
sg9
F0.0
sg10
F0.0
sg11
F0.0
sg12
F0.0
sg13
F0.0
sg14
F0.0
sg15
F208809.0
sg16
F0.0
ssI110
(dp125
g2
F96840.0
sg3
F1671.0
sg4
F0.0
sg5
F0.0
sg6
F7890324.0
sg7
F14689.0
sg8
F7509039.0
sg9
F221.0
sg10
F49.0
sg11
F0.0
sg12
F0.221719457014
sg13
F0.0
sg14
F1063.0
sg15
F381285.0
sg16
F204.0
ssI111
(dp126
g2
F76399.0
sg3
F0.0
sg4
F156250.0
sg5
F100000.0
sg6
F4221891.0
sg7
F8409.0
sg8
F4160672.0
sg9
F0.0
sg10
F0.0
sg11
F0.0
sg12
F0.0
sg13
F-200000.0
sg14
F0.0
sg15
F201483.0
sg16
F0.0
ssI112
(dp127
g2
F420636.0
sg3
F905.0
sg4
F1617011.0
sg5
F1750000.0
sg6
F22542539.0
sg7
F46950.0
sg8
F19794175.0
sg9
F18.0
sg10
F4.0
sg11
F1.0
sg12
F0.222222222222
sg13
F-3504386.0
sg14
F864.0
sg15
F2748364.0
sg16
F42.0
ssI113
(dp128
g2
F249201.0
sg3
F1328.0
sg4
F0.0
sg5
F700000.0
sg6
F1918887.0
sg7
F33271.0
sg8
F1635238.0
sg9
F82.0
sg10
F48.0
sg11
F1.0
sg12
F0.5853658536590001
sg13
F-100000.0
sg14
F1258.0
sg15
F283649.0
sg16
F35.0
ssI114
(dp129
g2
F0.0
sg3
F0.0
sg4
F0.0
sg5
F0.0
sg6
F0.0
sg7
F0.0
sg8
F0.0
sg9
F0.0
sg10
F0.0
sg11
F0.0
sg12
F0.0
sg13
F-121284.0
sg14
F0.0
sg15
F0.0
sg16
F0.0
ssI115
(dp130
g2
F0.0
sg3
F0.0
sg4
F0.0
sg5
F0.0
sg6
F759557.0
sg7
F0.0
sg8
F759557.0
sg9
F0.0
sg10
F0.0
sg11
F0.0
sg12
F0.0
sg13
F0.0
sg14
F0.0
sg15
F0.0
sg16
F0.0
ssI116
(dp131
g2
F304110.0
sg3
F3221.0
sg4
F554422.0
sg5
F2000000.0
sg6
F2072035.0
sg7
F178979.0
sg8
F1441898.0
sg9
F2681.0
sg10
F83.0
sg11
F0.0
sg12
F0.030958597538200003
sg13
F0.0
sg14
F1730.0
sg15
F630137.0
sg16
F94.0
ssI117
(dp132
g2
F269076.0
sg3
F15149.0
sg4
F0.0
sg5
F650000.0
sg6
F987001.0
sg7
F137767.0
sg8
F607837.0
sg9
F1215.0
sg10
F65.0
sg11
F0.0
sg12
F0.0534979423868
sg13
F0.0
sg14
F4527.0
sg15
F379164.0
sg16
F74.0
ssI118
(dp133
g2
F248146.0
sg3
F3136.0
sg4
F422158.0
sg5
F600000.0
sg6
F494136.0
sg7
F116337.0
sg8
F281073.0
sg9
F136.0
sg10
F6.0
sg11
F0.0
sg12
F0.0441176470588
sg13
F0.0
sg14
F2477.0
sg15
F213063.0
sg16
F24.0
ssI119
(dp134
g2
F211844.0
sg3
F225.0
sg4
F0.0
sg5
F200000.0
sg6
F2493616.0
sg7
F22884.0
sg8
F1624396.0
sg9
F39.0
sg10
F14.0
sg11
F1.0
sg12
F0.358974358974
sg13
F-4167.0
sg14
F91.0
sg15
F869220.0
sg16
F13.0
ssI120
(dp135
g2
F0.0
sg3
F613.0
sg4
F0.0
sg5
F0.0
sg6
F1832468.0
sg7
F0.0
sg8
F1426469.0
sg9
F25.0
sg10
F18.0
sg11
F0.0
sg12
F0.72
sg13
F0.0
sg14
F583.0
sg15
F405999.0
sg16
F39.0
ssI121
(dp136
g2
F428780.0
sg3
F3187.0
sg4
F554422.0
sg5
F1500000.0
sg6
F3128982.0
sg7
F0.0
sg8
F1835558.0
sg9
F92.0
sg10
F23.0
sg11
F0.0
sg12
F0.25
sg13
F0.0
sg14
F2103.0
sg15
F1293424.0
sg16
F28.0
ssI122
(dp137
g2
F1111258.0
sg3
F3627.0
sg4
F1920000.0
sg5
F5600000.0
sg6
F26093672.0
sg7
F29336.0
sg8
F19250000.0
sg9
F108.0
sg10
F30.0
sg11
F1.0
sg12
F0.277777777778
sg13
F0.0
sg14
F2042.0
sg15
F6843672.0
sg16
F88.0
ssI123
(dp138
g2
F239502.0
sg3
F0.0
sg4
F0.0
sg5
F500000.0
sg6
F511734.0
sg7
F16514.0
sg8
F0.0
sg9
F0.0
sg10
F0.0
sg11
F0.0
sg12
F0.0
sg13
F0.0
sg14
F0.0
sg15
F511734.0
sg16
F0.0
ssI124
(dp139
g2
F162779.0
sg3
F0.0
sg4
F554422.0
sg5
F100000.0
sg6
F1362375.0
sg7
F0.0
sg8
F1362375.0
sg9
F0.0
sg10
F0.0
sg11
F0.0
sg12
F0.0
sg13
F0.0
sg14
F0.0
sg15
F0.0
sg16
F0.0
ssI125
(dp140
g2
F257486.0
sg3
F2647.0
sg4
F476451.0
sg5
F700000.0
sg6
F698920.0
sg7
F0.0
sg8
F0.0
sg9
F38.0
sg10
F13.0
sg11
F0.0
sg12
F0.34210526315800005
sg13
F0.0
sg14
F2565.0
sg15
F698920.0
sg16
F37.0
ssI126
(dp141
g2
F265214.0
sg3
F533.0
sg4
F0.0
sg5
F600000.0
sg6
F3745048.0
sg7
F0.0
sg8
F3181250.0
sg9
F29.0
sg10
F0.0
sg11
F0.0
sg12
F0.0
sg13
F0.0
sg14
F300.0
sg15
F563798.0
sg16
F0.0
ssI128
(dp142
g2
F222093.0
sg3
F266.0
sg4
F200000.0
sg5
F0.0
sg6
F4817796.0
sg7
F46145.0
sg8
F4452476.0
sg9
F41.0
sg10
F0.0
sg11
F0.0
sg12
F0.0
sg13
F0.0
sg14
F73.0
sg15
F365320.0
sg16
F0.0
ssI129
(dp143
g2
F247338.0
sg3
F460.0
sg4
F275000.0
sg5
F300000.0
sg6
F1168042.0
sg7
F0.0
sg8
F591250.0
sg9
F19.0
sg10
F11.0
sg11
F0.0
sg12
F0.578947368421
sg13
F-575000.0
sg14
F379.0
sg15
F576792.0
sg16
F10.0
ssI131
(dp144
g2
F288589.0
sg3
F111.0
sg4
F0.0
sg5
F788750.0
sg6
F0.0
sg7
F53122.0
sg8
F0.0
sg9
F18.0
sg10
F0.0
sg11
F0.0
sg12
F0.0
sg13
F0.0
sg14
F41.0
sg15
F0.0
sg16
F12.0
ssI132
(dp145
g2
F0.0
sg3
F0.0
sg4
F0.0
sg5
F0.0
sg6
F0.0
sg7
F228656.0
sg8
F0.0
sg9
F0.0
sg10
F0.0
sg11
F0.0
sg12
F0.0
sg13
F-36666.0
sg14
F0.0
sg15
F0.0
sg16
F0.0
ssI133
(dp146
g2
F0.0
sg3
F0.0
sg4
F0.0
sg5
F0.0
sg6
F0.0
sg7
F103773.0
sg8
F0.0
sg9
F0.0
sg10
F0.0
sg11
F0.0
sg12
F0.0
sg13
F0.0
sg14
F0.0
sg15
F0.0
sg16
F0.0
ssI134
(dp147
g2
F357091.0
sg3
F671.0
sg4
F540751.0
sg5
F850000.0
sg6
F5898997.0
sg7
F50936.0
sg8
F4346544.0
sg9
F146.0
sg10
F0.0
sg11
F0.0
sg12
F0.0
sg13
F0.0
sg14
F215.0
sg15
F1552453.0
sg16
F17.0
ssI135
(dp148
g2
F0.0
sg3
F0.0
sg4
F0.0
sg5
F0.0
sg6
F1030329.0
sg7
F33785.0
sg8
F1030329.0
sg9
F0.0
sg10
F0.0
sg11
F0.0
sg12
F0.0
sg13
F0.0
sg14
F0.0
sg15
F0.0
sg16
F0.0
ssI136
(dp149
g2
F259996.0
sg3
F400.0
sg4
F200000.0
sg5
F325000.0
sg6
F2056427.0
sg7
F0.0
sg8
F1668260.0
sg9
F30.0
sg10
F7.0
sg11
F0.0
sg12
F0.233333333333
sg13
F-583325.0
sg14
F337.0
sg15
F388167.0
sg16
F22.0
ssI137
(dp150
g2
F63744.0
sg3
F0.0
sg4
F256191.0
sg5
F0.0
sg6
F384930.0
sg7
F51870.0
sg8
F0.0
sg9
F0.0
sg10
F0.0
sg11
F0.0
sg12
F0.0
sg13
F-10800.0
sg14
F0.0
sg15
F384930.0
sg16
F0.0
ssI138
(dp151
g2
F0.0
sg3
F0.0
sg4
F0.0
sg5
F0.0
sg6
F98718.0
sg7
F0.0
sg8
F98718.0
sg9
F0.0
sg10
F0.0
sg11
F0.0
sg12
F0.0
sg13
F0.0
sg14
F0.0
sg15
F0.0
sg16
F0.0
ssI139
(dp152
g2
F510364.0
sg3
F6019.0
sg4
F808346.0
sg5
F3000000.0
sg6
F6079137.0
sg7
F57838.0
sg8
F3282960.0
sg9
F556.0
sg10
F24.0
sg11
F0.0
sg12
F0.043165467625900004
sg13
F0.0
sg14
F3920.0
sg15
F2796177.0
sg16
F186.0
ssI140
(dp153
g2
F317543.0
sg3
F0.0
sg4
F0.0
sg5
F450000.0
sg6
F15144123.0
sg7
F81353.0
sg8
F1297049.0
sg9
F0.0
sg10
F0.0
sg11
F0.0
sg12
F0.0
sg13
F0.0
sg14
F0.0
sg15
F13847074.0
sg16
F0.0
ssI141
(dp154
g2
F0.0
sg3
F0.0
sg4
F0.0
sg5
F0.0
sg6
F0.0
sg7
F1413.0
sg8
F0.0
sg9
F0.0
sg10
F0.0
sg11
F0.0
sg12
F0.0
sg13
F-25000.0
sg14
F0.0
sg15
F0.0
sg16
F0.0
ssI142
(dp155
g2
F0.0
sg3
F0.0
sg4
F0.0
sg5
F0.0
sg6
F0.0
sg7
F0.0
sg8
F0.0
sg9
F0.0
sg10
F0.0
sg11
F0.0
sg12
F0.0
sg13
F0.0
sg14
F0.0
sg15
F0.0
sg16
F0.0
ssI143
(dp156
g2
F0.0
sg3
F0.0
sg4
F0.0
sg5
F0.0
sg6
F139130.0
sg7
F0.0
sg8
F139130.0
sg9
F0.0
sg10
F0.0
sg11
F0.0
sg12
F0.0
sg13
F0.0
sg14
F0.0
sg15
F0.0
sg16
F0.0
ssI144
(dp157
g2
F158403.0
sg3
F0.0
sg4
F0.0
sg5
F0.0
sg6
F11884758.0
sg7
F53947.0
sg8
F8308552.0
sg9
F0.0
sg10
F0.0
sg11
F1.0
sg12
F0.0
sg13
F0.0
sg14
F0.0
sg15
F3576206.0
sg16
F0.0
ssI145
(dp158
g2
F0.0
sg3
F0.0
sg4
F0.0
sg5
F0.0
sg6
F192758.0
sg7
F55097.0
sg8
F192758.0
sg9
F0.0
sg10
F0.0
sg11
F0.0
sg12
F0.0
sg13
F0.0
sg14
F0.0
sg15
F0.0
sg16
F0.0
ss.